target datalayout = "e-m:e-p270:32:32-p271:32:32-p272:64:64-i64:64-i128:128-f80:128-n8:16:32:64-S128"
target triple = "x86_64-unknown-linux-gnu"

%"class.QuantLib::(anonymous namespace)::FdmScheme" = type { ptr }
%"class.QuantLib::(anonymous namespace)::FdmSchemeWrapper.196" = type { %"class.QuantLib::(anonymous namespace)::FdmScheme", %"class.std::unique_ptr.197" }
%"class.std::unique_ptr.197" = type { %"struct.std::__uniq_ptr_data.198" }
%"struct.std::__uniq_ptr_data.198" = type { %"class.std::__uniq_ptr_impl.199" }
%"class.std::__uniq_ptr_impl.199" = type { %"class.std::tuple.200" }
%"class.std::tuple.200" = type { %"struct.std::_Tuple_impl.201" }
%"struct.std::_Tuple_impl.201" = type { %"struct.std::_Head_base.204" }
%"struct.std::_Head_base.204" = type { ptr }

; Function Attrs: mustprogress nounwind uwtable
define linkonce_odr noundef nonnull align 1 dereferenceable(1) ptr @_ZNSt10_Head_baseILm1ESt14default_deleteIN8QuantLib19ExplicitEulerSchemeEELb1EE7_M_headERS4_(ptr noundef nonnull align 1 dereferenceable(1) %__b) #1 comdat align 2 {
entry:
  %__b.addr = alloca ptr, align 8
  store ptr %__b, ptr %__b.addr, align 8, !tbaa !3
  %0 = load ptr, ptr %__b.addr, align 8, !tbaa !3
  ret ptr %0
}

; Function Attrs: mustprogress nounwind uwtable
define linkonce_odr noundef nonnull align 1 dereferenceable(1) ptr @_ZNSt11_Tuple_implILm1EJSt14default_deleteIN8QuantLib19ExplicitEulerSchemeEEEE7_M_headERS4_(ptr noundef nonnull align 1 dereferenceable(1) %__t) #1 comdat align 2 {
entry:
  %__t.addr = alloca ptr, align 8
  store ptr %__t, ptr %__t.addr, align 8, !tbaa !3
  %0 = load ptr, ptr %__t.addr, align 8, !tbaa !3
  %call = call noundef nonnull align 1 dereferenceable(1) ptr @_ZNSt10_Head_baseILm1ESt14default_deleteIN8QuantLib19ExplicitEulerSchemeEELb1EE7_M_headERS4_(ptr noundef nonnull align 1 dereferenceable(1) %0) #11
  ret ptr %call
}

; Function Attrs: mustprogress nounwind uwtable
define linkonce_odr noundef nonnull align 8 dereferenceable(8) ptr @_ZNSt10_Head_baseILm0EPN8QuantLib19ExplicitEulerSchemeELb0EE7_M_headERS3_(ptr noundef nonnull align 8 dereferenceable(8) %__b) #1 comdat align 2 {
entry:
  %__b.addr = alloca ptr, align 8
  store ptr %__b, ptr %__b.addr, align 8, !tbaa !3
  %0 = load ptr, ptr %__b.addr, align 8, !tbaa !3
  %_M_head_impl = getelementptr inbounds nuw %"struct.std::_Head_base.204", ptr %0, i32 0, i32 0
  ret ptr %_M_head_impl
}

; Function Attrs: mustprogress nounwind uwtable
define linkonce_odr noundef nonnull align 1 dereferenceable(1) ptr @_ZSt12__get_helperILm1ESt14default_deleteIN8QuantLib19ExplicitEulerSchemeEEJEERT0_RSt11_Tuple_implIXT_EJS4_DpT1_EE(ptr noundef nonnull align 1 dereferenceable(1) %__t) #1 comdat {
entry:
  %__t.addr = alloca ptr, align 8
  store ptr %__t, ptr %__t.addr, align 8, !tbaa !3
  %0 = load ptr, ptr %__t.addr, align 8, !tbaa !3
  %call = call noundef nonnull align 1 dereferenceable(1) ptr @_ZNSt11_Tuple_implILm1EJSt14default_deleteIN8QuantLib19ExplicitEulerSchemeEEEE7_M_headERS4_(ptr noundef nonnull align 1 dereferenceable(1) %0) #11
  ret ptr %call
}

; Function Attrs: mustprogress nounwind uwtable
define linkonce_odr noundef nonnull align 8 dereferenceable(8) ptr @_ZNSt11_Tuple_implILm0EJPN8QuantLib19ExplicitEulerSchemeESt14default_deleteIS1_EEE7_M_headERS5_(ptr noundef nonnull align 8 dereferenceable(8) %__t) #1 comdat align 2 {
entry:
  %__t.addr = alloca ptr, align 8
  store ptr %__t, ptr %__t.addr, align 8, !tbaa !3
  %0 = load ptr, ptr %__t.addr, align 8, !tbaa !3
  %call = call noundef nonnull align 8 dereferenceable(8) ptr @_ZNSt10_Head_baseILm0EPN8QuantLib19ExplicitEulerSchemeELb0EE7_M_headERS3_(ptr noundef nonnull align 8 dereferenceable(8) %0) #11
  ret ptr %call
}

; Function Attrs: mustprogress nounwind uwtable
define linkonce_odr noundef nonnull align 1 dereferenceable(1) ptr @_ZSt3getILm1EJPN8QuantLib19ExplicitEulerSchemeESt14default_deleteIS1_EEERNSt13tuple_elementIXT_ESt5tupleIJDpT0_EEE4typeERS9_(ptr noundef nonnull align 8 dereferenceable(8) %__t) #1 comdat {
entry:
  %__t.addr = alloca ptr, align 8
  store ptr %__t, ptr %__t.addr, align 8, !tbaa !3
  %0 = load ptr, ptr %__t.addr, align 8, !tbaa !3
  %call = call noundef nonnull align 1 dereferenceable(1) ptr @_ZSt12__get_helperILm1ESt14default_deleteIN8QuantLib19ExplicitEulerSchemeEEJEERT0_RSt11_Tuple_implIXT_EJS4_DpT1_EE(ptr noundef nonnull align 1 dereferenceable(1) %0) #11
  ret ptr %call
}

; Function Attrs: mustprogress nounwind uwtable
define linkonce_odr noundef nonnull align 8 dereferenceable(8) ptr @_ZSt12__get_helperILm0EPN8QuantLib19ExplicitEulerSchemeEJSt14default_deleteIS1_EEERT0_RSt11_Tuple_implIXT_EJS5_DpT1_EE(ptr noundef nonnull align 8 dereferenceable(8) %__t) #1 comdat {
entry:
  %__t.addr = alloca ptr, align 8
  store ptr %__t, ptr %__t.addr, align 8, !tbaa !3
  %0 = load ptr, ptr %__t.addr, align 8, !tbaa !3
  %call = call noundef nonnull align 8 dereferenceable(8) ptr @_ZNSt11_Tuple_implILm0EJPN8QuantLib19ExplicitEulerSchemeESt14default_deleteIS1_EEE7_M_headERS5_(ptr noundef nonnull align 8 dereferenceable(8) %0) #11
  ret ptr %call
}

; Function Attrs: mustprogress nounwind uwtable
define linkonce_odr noundef nonnull align 1 dereferenceable(1) ptr @_ZNSt15__uniq_ptr_implIN8QuantLib19ExplicitEulerSchemeESt14default_deleteIS1_EE10_M_deleterEv(ptr noundef nonnull align 8 dereferenceable(8) %this) #1 comdat align 2 {
entry:
  %this.addr = alloca ptr, align 8
  store ptr %this, ptr %this.addr, align 8, !tbaa !3
  %this1 = load ptr, ptr %this.addr, align 8
  %_M_t = getelementptr inbounds nuw %"class.std::__uniq_ptr_impl.199", ptr %this1, i32 0, i32 0
  %call = call noundef nonnull align 1 dereferenceable(1) ptr @_ZSt3getILm1EJPN8QuantLib19ExplicitEulerSchemeESt14default_deleteIS1_EEERNSt13tuple_elementIXT_ESt5tupleIJDpT0_EEE4typeERS9_(ptr noundef nonnull align 8 dereferenceable(8) %_M_t) #11
  ret ptr %call
}

; Function Attrs: mustprogress nounwind uwtable
define linkonce_odr noundef nonnull align 8 dereferenceable(8) ptr @_ZSt3getILm0EJPN8QuantLib19ExplicitEulerSchemeESt14default_deleteIS1_EEERNSt13tuple_elementIXT_ESt5tupleIJDpT0_EEE4typeERS9_(ptr noundef nonnull align 8 dereferenceable(8) %__t) #1 comdat {
entry:
  %__t.addr = alloca ptr, align 8
  store ptr %__t, ptr %__t.addr, align 8, !tbaa !3
  %0 = load ptr, ptr %__t.addr, align 8, !tbaa !3
  %call = call noundef nonnull align 8 dereferenceable(8) ptr @_ZSt12__get_helperILm0EPN8QuantLib19ExplicitEulerSchemeEJSt14default_deleteIS1_EEERT0_RSt11_Tuple_implIXT_EJS5_DpT1_EE(ptr noundef nonnull align 8 dereferenceable(8) %0) #11
  ret ptr %call
}

; Function Attrs: noinline noreturn nounwind uwtable
define linkonce_odr hidden void @__clang_call_terminate(ptr noundef %0) #3 comdat {
  %2 = call ptr @__cxa_begin_catch(ptr %0) #11
  call void @_ZSt9terminatev() #24
  unreachable
}

; Function Attrs: mustprogress nounwind uwtable
define linkonce_odr noundef nonnull align 1 dereferenceable(1) ptr @_ZNSt10unique_ptrIN8QuantLib19ExplicitEulerSchemeESt14default_deleteIS1_EE11get_deleterEv(ptr noundef nonnull align 8 dereferenceable(8) %this) #1 comdat align 2 {
entry:
  %this.addr = alloca ptr, align 8
  store ptr %this, ptr %this.addr, align 8, !tbaa !3
  %this1 = load ptr, ptr %this.addr, align 8
  %_M_t = getelementptr inbounds nuw %"class.std::unique_ptr.197", ptr %this1, i32 0, i32 0
  %call = call noundef nonnull align 1 dereferenceable(1) ptr @_ZNSt15__uniq_ptr_implIN8QuantLib19ExplicitEulerSchemeESt14default_deleteIS1_EE10_M_deleterEv(ptr noundef nonnull align 8 dereferenceable(8) %_M_t) #11
  ret ptr %call
}

; Function Attrs: mustprogress nounwind uwtable
define linkonce_odr noundef nonnull align 8 dereferenceable(8) ptr @_ZNSt15__uniq_ptr_implIN8QuantLib19ExplicitEulerSchemeESt14default_deleteIS1_EE6_M_ptrEv(ptr noundef nonnull align 8 dereferenceable(8) %this) #1 comdat align 2 {
entry:
  %this.addr = alloca ptr, align 8
  store ptr %this, ptr %this.addr, align 8, !tbaa !3
  %this1 = load ptr, ptr %this.addr, align 8
  %_M_t = getelementptr inbounds nuw %"class.std::__uniq_ptr_impl.199", ptr %this1, i32 0, i32 0
  %call = call noundef nonnull align 8 dereferenceable(8) ptr @_ZSt3getILm0EJPN8QuantLib19ExplicitEulerSchemeESt14default_deleteIS1_EEERNSt13tuple_elementIXT_ESt5tupleIJDpT0_EEE4typeERS9_(ptr noundef nonnull align 8 dereferenceable(8) %_M_t) #11
  ret ptr %call
}

; Function Attrs: mustprogress nounwind uwtable
define internal void @_ZN8QuantLib12_GLOBAL__N_19FdmSchemeD2Ev(ptr noundef nonnull align 8 dereferenceable(8) %this) unnamed_addr #1 align 2 {
entry:
  %this.addr = alloca ptr, align 8
  store ptr %this, ptr %this.addr, align 8, !tbaa !3
  ret void
}

; Function Attrs: mustprogress nounwind uwtable
define linkonce_odr void @_ZNSt10unique_ptrIN8QuantLib19ExplicitEulerSchemeESt14default_deleteIS1_EED2Ev(ptr noundef nonnull align 8 dereferenceable(8) %this) unnamed_addr #1 comdat align 2 personality ptr @__gxx_personality_v0 {
entry:
  %this.addr = alloca ptr, align 8
  %__ptr = alloca ptr, align 8
  store ptr %this, ptr %this.addr, align 8, !tbaa !3
  %this1 = load ptr, ptr %this.addr, align 8
  call void @llvm.lifetime.start.p0(i64 8, ptr %__ptr) #11
  %_M_t = getelementptr inbounds nuw %"class.std::unique_ptr.197", ptr %this1, i32 0, i32 0
  %call = call noundef nonnull align 8 dereferenceable(8) ptr @_ZNSt15__uniq_ptr_implIN8QuantLib19ExplicitEulerSchemeESt14default_deleteIS1_EE6_M_ptrEv(ptr noundef nonnull align 8 dereferenceable(8) %_M_t) #11
  store ptr %call, ptr %__ptr, align 8, !tbaa !3
  %0 = load ptr, ptr %__ptr, align 8, !tbaa !3
  %1 = load ptr, ptr %0, align 8, !tbaa !3
  %cmp = icmp ne ptr %1, null
  br i1 %cmp, label %if.then, label %if.end

if.then:                                          ; preds = %entry
  %call2 = call noundef nonnull align 1 dereferenceable(1) ptr @_ZNSt10unique_ptrIN8QuantLib19ExplicitEulerSchemeESt14default_deleteIS1_EE11get_deleterEv(ptr noundef nonnull align 8 dereferenceable(8) %this1) #11
  %2 = load ptr, ptr %__ptr, align 8, !tbaa !3
  %3 = load ptr, ptr %2, align 8, !tbaa !3
  invoke void @_ZNKSt14default_deleteIN8QuantLib19ExplicitEulerSchemeEEclEPS1_(ptr noundef nonnull align 1 dereferenceable(1) %call2, ptr noundef %3)
          to label %invoke.cont unwind label %terminate.lpad

invoke.cont:                                      ; preds = %if.then
  br label %if.end

if.end:                                           ; preds = %invoke.cont, %entry
  %4 = load ptr, ptr %__ptr, align 8, !tbaa !3
  store ptr null, ptr %4, align 8, !tbaa !3
  call void @llvm.lifetime.end.p0(i64 8, ptr %__ptr) #11
  ret void

terminate.lpad:                                   ; preds = %if.then
  %5 = landingpad { ptr, i32 }
          catch ptr null
  %6 = extractvalue { ptr, i32 } %5, 0
  call void @__clang_call_terminate(ptr %6) #24
  unreachable
}

; Function Attrs: inlinehint mustprogress nounwind uwtable
define internal void @_ZN8QuantLib12_GLOBAL__N_116FdmSchemeWrapperINS_19ExplicitEulerSchemeEED2Ev(ptr noundef nonnull align 8 dereferenceable(16) %this) unnamed_addr #5 align 2 {
entry:
  %this.addr = alloca ptr, align 8
  store ptr %this, ptr %this.addr, align 8, !tbaa !3
  %this1 = load ptr, ptr %this.addr, align 8
  store ptr getelementptr inbounds inrange(-16, 32) ({ [6 x ptr] }, ptr @_ZTVN8QuantLib12_GLOBAL__N_116FdmSchemeWrapperINS_19ExplicitEulerSchemeEEE, i32 0, i32 0, i32 2), ptr %this1, align 8, !tbaa !20
  %scheme_ = getelementptr inbounds nuw %"class.QuantLib::(anonymous namespace)::FdmSchemeWrapper.196", ptr %this1, i32 0, i32 1
  call void @_ZNSt10unique_ptrIN8QuantLib19ExplicitEulerSchemeESt14default_deleteIS1_EED2Ev(ptr noundef nonnull align 8 dereferenceable(8) %scheme_) #11
  call void @_ZN8QuantLib12_GLOBAL__N_19FdmSchemeD2Ev(ptr noundef nonnull align 8 dereferenceable(8) %this1) #11
  ret void
}