; Function Attrs: inlinehint mustprogress nounwind uwtable
define internal void @_ZN8QuantLib12_GLOBAL__N_116FdmSchemeWrapperINS_19ExplicitEulerSchemeEED2Ev(ptr noundef nonnull align 8 dereferenceable(16) %this) unnamed_addr #4 align 2 personality ptr @__gxx_personality_v0 {
entry:
  store ptr getelementptr inbounds inrange(-16, 32) (i8, ptr @_ZTVN8QuantLib12_GLOBAL__N_116FdmSchemeWrapperINS_19ExplicitEulerSchemeEEE, i64 16), ptr %this, align 8, !tbaa !33
  %scheme_ = getelementptr inbounds nuw i8, ptr %this, i64 8
  %0 = load ptr, ptr %scheme_, align 8, !tbaa !3
  %cmp.not.i = icmp eq ptr %0, null
  br i1 %cmp.not.i, label %_ZNSt10unique_ptrIN8QuantLib19ExplicitEulerSchemeESt14default_deleteIS1_EED2Ev.exit, label %if.then.i

if.then.i:                                        ; preds = %entry
  tail call void @_ZNKSt14default_deleteIN8QuantLib19ExplicitEulerSchemeEEclEPS1_(ptr noundef nonnull align 1 dereferenceable(1) %scheme_, ptr noundef nonnull %0)
  br label %_ZNSt10unique_ptrIN8QuantLib19ExplicitEulerSchemeESt14default_deleteIS1_EED2Ev.exit

_ZNSt10unique_ptrIN8QuantLib19ExplicitEulerSchemeESt14default_deleteIS1_EED2Ev.exit: ; preds = %entry, %if.then.i
  store ptr null, ptr %scheme_, align 8, !tbaa !3
  ret void
}